; Function Attrs: mustprogress nofree norecurse nosync nounwind willreturn memory(argmem: read) uwtable
define noundef zeroext i1 @_Z9isMainSimPK14gmx_multisim_t(ptr noundef readonly %0) local_unnamed_addr #14 {
  %.not = icmp eq ptr %0, null
  br i1 %.not, label %6, label %2

2:                                                ; preds = %1
  %3 = getelementptr inbounds i8, ptr %0, i64 4
  %4 = load i32, ptr %3, align 4
  %5 = icmp eq i32 %4, 0
  br label %6

6:                                                ; preds = %2, %1
  %7 = phi i1 [ true, %1 ], [ %5, %2 ]
  ret i1 %7
}